target datalayout = "e-m:e-p270:32:32-p271:32:32-p272:64:64-i64:64-i128:128-f80:128-n8:16:32:64-S128"
target triple = "x86_64-pc-linux-gnu"

%struct.SymTab = type { ptr, i64, i64 }
%struct.SymtabEntry_ = type { ptr, ptr, i16, i16, i32, i32, ptr }

@symtab = internal global %struct.SymTab zeroinitializer, align 8

; Function Attrs: nounwind uwtable
define dso_local ptr @symtab_add(ptr noundef %0, i32 noundef %1, i32 noundef %2, ptr noundef %3) #0 {
  %5 = alloca ptr, align 8
  %6 = alloca ptr, align 8
  %7 = alloca i32, align 4
  %8 = alloca i32, align 4
  %9 = alloca ptr, align 8
  %10 = alloca i64, align 8
  %11 = alloca ptr, align 8
  %12 = alloca ptr, align 8
  %13 = alloca ptr, align 8
  %14 = alloca ptr, align 8
  store ptr %0, ptr %6, align 8
  store i32 %1, ptr %7, align 4
  store i32 %2, ptr %8, align 4
  store ptr %3, ptr %9, align 8
  %15 = load i32, ptr %8, align 4
  %16 = zext i32 %15 to i64
  %17 = load i64, ptr getelementptr inbounds (%struct.SymTab, ptr @symtab, i32 0, i32 2), align 8
  %18 = and i64 %16, %17
  store i64 %18, ptr %10, align 8
  %19 = load ptr, ptr @symtab, align 8
  %20 = load i64, ptr %10, align 8
  %21 = getelementptr inbounds ptr, ptr %19, i64 %20
  %22 = load ptr, ptr %21, align 8
  store ptr %22, ptr %11, align 8
  %23 = load ptr, ptr %11, align 8
  %24 = icmp ne ptr %23, null
  br i1 %24, label %51, label %25

25:                                               ; preds = %4
  %26 = call ptr @calloc_arena(i64 noundef 40)
  store ptr %26, ptr %12, align 8
  %27 = load ptr, ptr %12, align 8
  %28 = load ptr, ptr @symtab, align 8
  %29 = load i64, ptr %10, align 8
  %30 = getelementptr inbounds ptr, ptr %28, i64 %29
  store ptr %27, ptr %30, align 8
  %31 = load i32, ptr %7, align 4
  %32 = trunc i32 %31 to i16
  %33 = load ptr, ptr %12, align 8
  %34 = getelementptr inbounds %struct.SymtabEntry_, ptr %33, i32 0, i32 2
  store i16 %32, ptr %34, align 8
  %35 = load ptr, ptr %12, align 8
  %36 = getelementptr inbounds %struct.SymtabEntry_, ptr %35, i32 0, i32 0
  store ptr null, ptr %36, align 8
  %37 = load i32, ptr %8, align 4
  %38 = load ptr, ptr %12, align 8
  %39 = getelementptr inbounds %struct.SymtabEntry_, ptr %38, i32 0, i32 5
  store i32 %37, ptr %39, align 8
  %40 = load ptr, ptr %9, align 8
  %41 = load i32, ptr %40, align 4
  %42 = load ptr, ptr %12, align 8
  %43 = getelementptr inbounds %struct.SymtabEntry_, ptr %42, i32 0, i32 3
  %44 = trunc i32 %41 to i16
  store i16 %44, ptr %43, align 2
  %45 = load ptr, ptr %6, align 8
  %46 = load i32, ptr %7, align 4
  %47 = zext i32 %46 to i64
  %48 = call ptr @str_copy(ptr noundef %45, i64 noundef %47)
  %49 = load ptr, ptr %12, align 8
  %50 = getelementptr inbounds %struct.SymtabEntry_, ptr %49, i32 0, i32 6
  store ptr %48, ptr %50, align 8
  store ptr %48, ptr %5, align 8
  br label %118

51:                                               ; preds = %4
  %52 = load ptr, ptr %11, align 8
  store ptr %52, ptr %13, align 8
  br label %53

53:                                               ; preds = %88, %51
  %54 = load ptr, ptr %13, align 8
  %55 = getelementptr inbounds %struct.SymtabEntry_, ptr %54, i32 0, i32 5
  %56 = load i32, ptr %55, align 8
  %57 = load i32, ptr %8, align 4
  %58 = icmp eq i32 %56, %57
  br i1 %58, label %59, label %84

59:                                               ; preds = %53
  %60 = load i32, ptr %7, align 4
  %61 = load ptr, ptr %13, align 8
  %62 = getelementptr inbounds %struct.SymtabEntry_, ptr %61, i32 0, i32 2
  %63 = load i16, ptr %62, align 8
  %64 = zext i16 %63 to i32
  %65 = icmp eq i32 %60, %64
  br i1 %65, label %66, label %84

66:                                               ; preds = %59
  %67 = load ptr, ptr %6, align 8
  %68 = load ptr, ptr %13, align 8
  %69 = getelementptr inbounds %struct.SymtabEntry_, ptr %68, i32 0, i32 6
  %70 = load ptr, ptr %69, align 8
  %71 = load i32, ptr %7, align 4
  %72 = zext i32 %71 to i64
  %73 = call i32 @memcmp(ptr noundef %67, ptr noundef %70, i64 noundef %72) #10
  %74 = icmp eq i32 %73, 0
  br i1 %74, label %75, label %84

75:                                               ; preds = %66
  %76 = load ptr, ptr %13, align 8
  %77 = getelementptr inbounds %struct.SymtabEntry_, ptr %76, i32 0, i32 3
  %78 = load i16, ptr %77, align 2
  %79 = zext i16 %78 to i32
  %80 = load ptr, ptr %9, align 8
  store i32 %79, ptr %80, align 4
  %81 = load ptr, ptr %13, align 8
  %82 = getelementptr inbounds %struct.SymtabEntry_, ptr %81, i32 0, i32 6
  %83 = load ptr, ptr %82, align 8
  store ptr %83, ptr %5, align 8
  br label %118

84:                                               ; preds = %66, %59, %53
  %85 = load ptr, ptr %13, align 8
  %86 = getelementptr inbounds %struct.SymtabEntry_, ptr %85, i32 0, i32 0
  %87 = load ptr, ptr %86, align 8
  store ptr %87, ptr %13, align 8
  br label %88

88:                                               ; preds = %84
  %89 = load ptr, ptr %13, align 8
  %90 = icmp ne ptr %89, null
  br i1 %90, label %53, label %91, !llvm.loop !13

91:                                               ; preds = %88
  %92 = call ptr @calloc_arena(i64 noundef 40)
  store ptr %92, ptr %14, align 8
  %93 = load ptr, ptr %11, align 8
  %94 = load ptr, ptr %14, align 8
  %95 = getelementptr inbounds %struct.SymtabEntry_, ptr %94, i32 0, i32 0
  store ptr %93, ptr %95, align 8
  %96 = load ptr, ptr %14, align 8
  %97 = load ptr, ptr @symtab, align 8
  %98 = load i64, ptr %10, align 8
  %99 = getelementptr inbounds ptr, ptr %97, i64 %98
  store ptr %96, ptr %99, align 8
  %100 = load i32, ptr %7, align 4
  %101 = trunc i32 %100 to i16
  %102 = load ptr, ptr %14, align 8
  %103 = getelementptr inbounds %struct.SymtabEntry_, ptr %102, i32 0, i32 2
  store i16 %101, ptr %103, align 8
  %104 = load i32, ptr %8, align 4
  %105 = load ptr, ptr %14, align 8
  %106 = getelementptr inbounds %struct.SymtabEntry_, ptr %105, i32 0, i32 5
  store i32 %104, ptr %106, align 8
  %107 = load ptr, ptr %9, align 8
  %108 = load i32, ptr %107, align 4
  %109 = load ptr, ptr %14, align 8
  %110 = getelementptr inbounds %struct.SymtabEntry_, ptr %109, i32 0, i32 3
  %111 = trunc i32 %108 to i16
  store i16 %111, ptr %110, align 2
  %112 = load ptr, ptr %6, align 8
  %113 = load i32, ptr %7, align 4
  %114 = zext i32 %113 to i64
  %115 = call ptr @str_copy(ptr noundef %112, i64 noundef %114)
  %116 = load ptr, ptr %14, align 8
  %117 = getelementptr inbounds %struct.SymtabEntry_, ptr %116, i32 0, i32 6
  store ptr %115, ptr %117, align 8
  store ptr %115, ptr %5, align 8
  br label %118

118:                                              ; preds = %91, %75, %25
  %119 = load ptr, ptr %5, align 8
  ret ptr %119
}