; Function Attrs: nounwind uwtable
define dso_local ptr @symtab_add(ptr noundef %0, i32 noundef %1, i32 noundef %2, ptr nocapture noundef %3) local_unnamed_addr #2 {
  %5 = zext i32 %2 to i64
  %6 = load i64, ptr @symtab.2, align 8
  %7 = and i64 %6, %5
  %8 = load ptr, ptr @symtab.0, align 8
  %9 = getelementptr inbounds ptr, ptr %8, i64 %7
  %10 = load ptr, ptr %9, align 8
  %.not = icmp eq ptr %10, null
  br i1 %.not, label %12, label %.preheader

.preheader:                                       ; preds = %4
  %11 = zext i32 %1 to i64
  br label %25

12:                                               ; preds = %4
  %13 = tail call ptr @calloc_arena(i64 noundef 40) #12
  %14 = load ptr, ptr @symtab.0, align 8
  %15 = getelementptr inbounds ptr, ptr %14, i64 %7
  store ptr %13, ptr %15, align 8
  %16 = trunc i32 %1 to i16
  %17 = getelementptr inbounds i8, ptr %13, i64 16
  store i16 %16, ptr %17, align 8
  store ptr null, ptr %13, align 8
  %18 = getelementptr inbounds i8, ptr %13, i64 24
  store i32 %2, ptr %18, align 8
  %19 = load i32, ptr %3, align 4
  %20 = getelementptr inbounds i8, ptr %13, i64 18
  %21 = trunc i32 %19 to i16
  store i16 %21, ptr %20, align 2
  %22 = zext i32 %1 to i64
  %23 = tail call ptr @str_copy(ptr noundef %0, i64 noundef %22) #12
  %24 = getelementptr inbounds i8, ptr %13, i64 32
  store ptr %23, ptr %24, align 8
  br label %58

25:                                               ; preds = %.preheader, %44
  %.041 = phi ptr [ %45, %44 ], [ %10, %.preheader ]
  %26 = getelementptr inbounds i8, ptr %.041, i64 24
  %27 = load i32, ptr %26, align 8
  %28 = icmp eq i32 %27, %2
  br i1 %28, label %29, label %44

29:                                               ; preds = %25
  %30 = getelementptr inbounds i8, ptr %.041, i64 16
  %31 = load i16, ptr %30, align 8
  %32 = zext i16 %31 to i32
  %33 = icmp eq i32 %32, %1
  br i1 %33, label %34, label %44

34:                                               ; preds = %29
  %35 = getelementptr inbounds i8, ptr %.041, i64 32
  %36 = load ptr, ptr %35, align 8
  %bcmp = tail call i32 @bcmp(ptr %0, ptr %36, i64 %11)
  %37 = icmp eq i32 %bcmp, 0
  br i1 %37, label %38, label %44

38:                                               ; preds = %34
  %39 = getelementptr inbounds i8, ptr %.041, i64 32
  %40 = getelementptr inbounds i8, ptr %.041, i64 18
  %41 = load i16, ptr %40, align 2
  %42 = zext i16 %41 to i32
  store i32 %42, ptr %3, align 4
  %43 = load ptr, ptr %39, align 8
  br label %58

44:                                               ; preds = %34, %29, %25
  %45 = load ptr, ptr %.041, align 8
  %.not45 = icmp eq ptr %45, null
  br i1 %.not45, label %46, label %25, !llvm.loop !10

46:                                               ; preds = %44
  %47 = tail call ptr @calloc_arena(i64 noundef 40) #12
  store ptr %10, ptr %47, align 8
  %48 = load ptr, ptr @symtab.0, align 8
  %49 = getelementptr inbounds ptr, ptr %48, i64 %7
  store ptr %47, ptr %49, align 8
  %50 = trunc i32 %1 to i16
  %51 = getelementptr inbounds i8, ptr %47, i64 16
  store i16 %50, ptr %51, align 8
  %52 = getelementptr inbounds i8, ptr %47, i64 24
  store i32 %2, ptr %52, align 8
  %53 = load i32, ptr %3, align 4
  %54 = getelementptr inbounds i8, ptr %47, i64 18
  %55 = trunc i32 %53 to i16
  store i16 %55, ptr %54, align 2
  %56 = tail call ptr @str_copy(ptr noundef %0, i64 noundef %11) #12
  %57 = getelementptr inbounds i8, ptr %47, i64 32
  store ptr %56, ptr %57, align 8
  br label %58

58:                                               ; preds = %46, %38, %12
  %.0 = phi ptr [ %43, %38 ], [ %56, %46 ], [ %23, %12 ]
  ret ptr %.0
}